target datalayout = "e-m:e-p270:32:32-p271:32:32-p272:64:64-i64:64-i128:128-f80:128-n8:16:32:64-S128"
target triple = "x86_64-pc-linux-gnu"

%struct.AVFilterContext = type { ptr, ptr, ptr, ptr, ptr, i32, ptr, ptr, i32, ptr, ptr, i32, i32, ptr, ptr, ptr, ptr, i32, ptr, i32, i32 }
%struct.EvalContext = type { ptr, ptr, i32, %struct.AVChannelLayout, ptr, i32, i32, i32, i64, ptr, ptr, i32, i64, i64, [6 x double], ptr }
%struct.AVChannelLayout = type { i32, i32, %union.anon.1, ptr }
%union.anon.1 = type { i64 }
%struct.AVFilterFormatsConfig = type { ptr, ptr, ptr, ptr, ptr }

@aeval_query_formats.sample_fmts = internal constant [2 x i32] [i32 9, i32 -1], align 4

; Function Attrs: nounwind uwtable
define internal i32 @aeval_query_formats(ptr noundef %0, ptr noundef %1, ptr noundef %2) #1 {
  %4 = alloca i32, align 4
  %5 = alloca ptr, align 8
  %6 = alloca ptr, align 8
  %7 = alloca ptr, align 8
  %8 = alloca ptr, align 8
  %9 = alloca ptr, align 8
  %10 = alloca i32, align 4
  %11 = alloca i32, align 4
  %12 = alloca %struct.AVChannelLayout, align 8
  store ptr %0, ptr %5, align 8, !tbaa !4
  store ptr %1, ptr %6, align 8, !tbaa !43
  store ptr %2, ptr %7, align 8, !tbaa !43
  call void @llvm.lifetime.start.p0(i64 8, ptr %8) #9
  call void @llvm.lifetime.start.p0(i64 8, ptr %9) #9
  %13 = load ptr, ptr %5, align 8, !tbaa !4
  %14 = getelementptr inbounds nuw %struct.AVFilterContext, ptr %13, i32 0, i32 9
  %15 = load ptr, ptr %14, align 8, !tbaa !9
  store ptr %15, ptr %9, align 8, !tbaa !22
  call void @llvm.lifetime.start.p0(i64 4, ptr %10) #9
  %16 = call ptr @ff_all_channel_counts()
  store ptr %16, ptr %8, align 8, !tbaa !80
  %17 = load ptr, ptr %8, align 8, !tbaa !80
  %18 = load ptr, ptr %6, align 8, !tbaa !43
  %19 = getelementptr inbounds ptr, ptr %18, i64 0
  %20 = load ptr, ptr %19, align 8, !tbaa !81
  %21 = getelementptr inbounds nuw %struct.AVFilterFormatsConfig, ptr %20, i32 0, i32 2
  %22 = call i32 @ff_channel_layouts_ref(ptr noundef %17, ptr noundef %21)
  store i32 %22, ptr %10, align 4, !tbaa !24
  %23 = icmp slt i32 %22, 0
  br i1 %23, label %24, label %26

24:                                               ; preds = %3
  %25 = load i32, ptr %10, align 4, !tbaa !24
  store i32 %25, ptr %4, align 4
  store i32 1, ptr %11, align 4
  br label %63

26:                                               ; preds = %3
  %27 = load ptr, ptr %9, align 8, !tbaa !22
  %28 = getelementptr inbounds nuw %struct.EvalContext, ptr %27, i32 0, i32 7
  %29 = load i32, ptr %28, align 8, !tbaa !33
  %30 = icmp ne i32 %29, 0
  br i1 %30, label %54, label %31

31:                                               ; preds = %26
  store ptr null, ptr %8, align 8, !tbaa !80
  %32 = getelementptr inbounds nuw %struct.AVChannelLayout, ptr %12, i32 0, i32 0
  store i32 0, ptr %32, align 8, !tbaa !48
  %33 = getelementptr inbounds nuw %struct.AVChannelLayout, ptr %12, i32 0, i32 1
  %34 = load ptr, ptr %9, align 8, !tbaa !22
  %35 = getelementptr inbounds nuw %struct.EvalContext, ptr %34, i32 0, i32 5
  %36 = load i32, ptr %35, align 8, !tbaa !35
  store i32 %36, ptr %33, align 4, !tbaa !49
  %37 = getelementptr inbounds nuw %struct.AVChannelLayout, ptr %12, i32 0, i32 2
  call void @llvm.memset.p0.i64(ptr align 8 %37, i8 0, i64 8, i1 false)
  %38 = getelementptr inbounds nuw %struct.AVChannelLayout, ptr %12, i32 0, i32 3
  store ptr null, ptr %38, align 8, !tbaa !50
  %39 = call i32 @ff_add_channel_layout(ptr noundef %8, ptr noundef %12)
  store i32 %39, ptr %10, align 4, !tbaa !24
  %40 = icmp slt i32 %39, 0
  br i1 %40, label %41, label %43

41:                                               ; preds = %31
  %42 = load i32, ptr %10, align 4, !tbaa !24
  store i32 %42, ptr %4, align 4
  store i32 1, ptr %11, align 4
  br label %63

43:                                               ; preds = %31
  %44 = load ptr, ptr %8, align 8, !tbaa !80
  %45 = load ptr, ptr %7, align 8, !tbaa !43
  %46 = getelementptr inbounds ptr, ptr %45, i64 0
  %47 = load ptr, ptr %46, align 8, !tbaa !81
  %48 = getelementptr inbounds nuw %struct.AVFilterFormatsConfig, ptr %47, i32 0, i32 2
  %49 = call i32 @ff_channel_layouts_ref(ptr noundef %44, ptr noundef %48)
  store i32 %49, ptr %10, align 4, !tbaa !24
  %50 = icmp slt i32 %49, 0
  br i1 %50, label %51, label %53

51:                                               ; preds = %43
  %52 = load i32, ptr %10, align 4, !tbaa !24
  store i32 %52, ptr %4, align 4
  store i32 1, ptr %11, align 4
  br label %63

53:                                               ; preds = %43
  br label %54

54:                                               ; preds = %53, %26
  %55 = load ptr, ptr %5, align 8, !tbaa !4
  %56 = load ptr, ptr %6, align 8, !tbaa !43
  %57 = load ptr, ptr %7, align 8, !tbaa !43
  %58 = call i32 @ff_set_common_formats_from_list2(ptr noundef %55, ptr noundef %56, ptr noundef %57, ptr noundef @aeval_query_formats.sample_fmts)
  store i32 %58, ptr %10, align 4, !tbaa !24
  %59 = icmp slt i32 %58, 0
  br i1 %59, label %60, label %62

60:                                               ; preds = %54
  %61 = load i32, ptr %10, align 4, !tbaa !24
  store i32 %61, ptr %4, align 4
  store i32 1, ptr %11, align 4
  br label %63

62:                                               ; preds = %54
  store i32 0, ptr %4, align 4
  store i32 1, ptr %11, align 4
  br label %63

63:                                               ; preds = %62, %60, %51, %41, %24
  call void @llvm.lifetime.end.p0(i64 4, ptr %10) #9
  call void @llvm.lifetime.end.p0(i64 8, ptr %9) #9
  call void @llvm.lifetime.end.p0(i64 8, ptr %8) #9
  %64 = load i32, ptr %4, align 4
  ret i32 %64
}