; Function Attrs: nounwind uwtable
define internal range(i32 -2147483648, 1) i32 @aeval_query_formats(ptr noundef %0, ptr noundef %1, ptr noundef %2) #1 {
  %4 = alloca ptr, align 8
  %5 = alloca %struct.AVChannelLayout, align 8
  call void @llvm.lifetime.start.p0(i64 8, ptr nonnull %4) #11
  %6 = getelementptr inbounds nuw i8, ptr %0, i64 72
  %7 = load ptr, ptr %6, align 8, !tbaa !4
  %8 = tail call ptr @ff_all_channel_counts() #11
  store ptr %8, ptr %4, align 8, !tbaa !72
  %9 = load ptr, ptr %1, align 8, !tbaa !73
  %10 = getelementptr inbounds nuw i8, ptr %9, i64 16
  %11 = tail call i32 @ff_channel_layouts_ref(ptr noundef %8, ptr noundef nonnull %10) #11
  %12 = icmp slt i32 %11, 0
  br i1 %12, label %31, label %13

13:                                               ; preds = %3
  %14 = getelementptr inbounds nuw i8, ptr %7, i64 64
  %15 = load i32, ptr %14, align 8, !tbaa !28
  %.not = icmp eq i32 %15, 0
  br i1 %.not, label %16, label %29

16:                                               ; preds = %13
  store ptr null, ptr %4, align 8, !tbaa !72
  store i32 0, ptr %5, align 8, !tbaa !42
  %17 = getelementptr inbounds nuw i8, ptr %5, i64 4
  %18 = getelementptr inbounds nuw i8, ptr %7, i64 56
  %19 = load i32, ptr %18, align 8, !tbaa !30
  store i32 %19, ptr %17, align 4, !tbaa !43
  %20 = getelementptr inbounds nuw i8, ptr %5, i64 8
  call void @llvm.memset.p0.i64(ptr noundef nonnull align 8 dereferenceable(16) %20, i8 0, i64 16, i1 false)
  %21 = call i32 @ff_add_channel_layout(ptr noundef nonnull %4, ptr noundef nonnull %5) #11
  %22 = icmp slt i32 %21, 0
  br i1 %22, label %31, label %23

23:                                               ; preds = %16
  %24 = load ptr, ptr %4, align 8, !tbaa !72
  %25 = load ptr, ptr %2, align 8, !tbaa !73
  %26 = getelementptr inbounds nuw i8, ptr %25, i64 16
  %27 = call i32 @ff_channel_layouts_ref(ptr noundef %24, ptr noundef nonnull %26) #11
  %28 = icmp slt i32 %27, 0
  br i1 %28, label %31, label %29

29:                                               ; preds = %23, %13
  %30 = call i32 @ff_set_common_formats_from_list2(ptr noundef nonnull %0, ptr noundef nonnull %1, ptr noundef %2, ptr noundef nonnull @aeval_query_formats.sample_fmts) #11
  %. = call i32 @llvm.smin.i32(i32 %30, i32 0)
  br label %31

31:                                               ; preds = %29, %23, %16, %3
  %.0 = phi i32 [ %11, %3 ], [ %21, %16 ], [ %27, %23 ], [ %., %29 ]
  call void @llvm.lifetime.end.p0(i64 8, ptr nonnull %4) #11
  ret i32 %.0
}